ccopy_reg
_reconstructor
p0
(csklearn.linear_model.logistic
LogisticRegression
p1
c__builtin__
object
p2
Ntp3
Rp4
(dp5
S'loss'
p6
S'lr'
p7
sS'C'
p8
F1.0
sS'verbose'
p9
I0
sS'fit_intercept'
p10
I01
sS'class_weight_'
p11
cnumpy.core.multiarray
_reconstruct
p12
(cnumpy
ndarray
p13
(I0
tp14
S'b'
p15
tp16
Rp17
(I1
(I2
tp18
cnumpy
dtype
p19
(S'f8'
p20
I0
I1
tp21
Rp22
(I3
S'<'
p23
NNNI-1
I-1
I0
tp24
bI00
S'\x00\x00\x00\x00\x00\x00\xf0?\x00\x00\x00\x00\x00\x00\xf0?'
p25
tp26
bsS'class_weight'
p27
NsS'penalty'
p28
S'l2'
p29
sS'multi_class'
p30
S'ovr'
p31
sS'random_state'
p32
NsS'raw_coef_'
p33
g12
(g13
(I0
tp34
g15
tp35
Rp36
(I1
(I1
I4
tp37
g22
I01
S'\xb0WYz\xad\xa1\xc7?\xf2\xa1\x0f\x9b\xc2e\xc6?\x1a\xce\xa48\x18\xfb5?\x88\xbfCq}\x87\x11\xc0'
p38
tp39
bsS'_enc'
p40
g0
(csklearn.preprocessing.label
LabelEncoder
p41
g2
Ntp42
Rp43
(dp44
S'classes_'
p45
g12
(g13
(I0
tp46
g15
tp47
Rp48
(I1
(I2
tp49
g19
(S'i8'
p50
I0
I1
tp51
Rp52
(I3
S'<'
p53
NNNI-1
I-1
I0
tp54
bI00
S'\x00\x00\x00\x00\x00\x00\x00\x00\x01\x00\x00\x00\x00\x00\x00\x00'
p55
tp56
bsbsS'dual'
p57
I00
sS'tol'
p58
F0.0001
sS'coef_'
p59
g12
(g13
(I0
tp60
g15
tp61
Rp62
(I1
(I1
I3
tp63
g22
I01
S'\xb0WYz\xad\xa1\xc7?\xf2\xa1\x0f\x9b\xc2e\xc6?\x1a\xce\xa48\x18\xfb5?'
p64
tp65
bsS'intercept_'
p66
g12
(g13
(I0
tp67
g15
tp68
Rp69
(I1
(I1
tp70
g22
I00
S'\x88\xbfCq}\x87\x11\xc0'
p71
tp72
bsS'intercept_scaling'
p73
I1
sb.